; Function Attrs: mustprogress uwtable
define noundef nonnull ptr @_ZNK5folly10SSLContext9createSSLEv(ptr noundef nonnull readonly align 8 captures(none) dereferenceable(304) %0) local_unnamed_addr #2 align 2 personality ptr @__gxx_personality_v0 {
  %2 = alloca %"class.std::__cxx11::basic_string", align 8
  %3 = alloca %"class.std::__cxx11::basic_string", align 8
  %4 = getelementptr inbounds nuw i8, ptr %0, i64 8
  %5 = load ptr, ptr %4, align 8, !tbaa !10
  %6 = tail call ptr @SSL_new(ptr noundef %5)
  %7 = icmp eq ptr %6, null
  br i1 %7, label %8, label %44

8:                                                ; preds = %1
  %9 = tail call ptr @__cxa_allocate_exception(i64 16) #29
  call void @llvm.lifetime.start.p0(i64 32, ptr nonnull %2) #29
  call void @llvm.lifetime.start.p0(i64 32, ptr nonnull %3) #29
  %10 = tail call ptr @__errno_location() #31
  %11 = load i32, ptr %10, align 4, !tbaa !74, !noalias !273
  invoke void @_ZN5folly10SSLContext9getErrorsB5cxx11Ei(ptr dead_on_unwind nonnull writable sret(%"class.std::__cxx11::basic_string") align 8 %3, i32 noundef %11)
          to label %_ZN5folly10SSLContext9getErrorsB5cxx11Ev.exit unwind label %_ZNSt7__cxx1112basic_stringIcSt11char_traitsIcESaIcEED2Ev.exit14.thread

_ZN5folly10SSLContext9getErrorsB5cxx11Ev.exit:    ; preds = %8
  invoke void @_ZStplIcSt11char_traitsIcESaIcEENSt7__cxx1112basic_stringIT_T0_T1_EEPKS5_OS8_(ptr dead_on_unwind nonnull writable sret(%"class.std::__cxx11::basic_string") align 8 %2, ptr noundef nonnull @.str.78, ptr noundef nonnull align 8 dereferenceable(32) %3)
          to label %12 unwind label %_ZNSt7__cxx1112basic_stringIcSt11char_traitsIcESaIcEED2Ev.exit.thread

12:                                               ; preds = %_ZN5folly10SSLContext9getErrorsB5cxx11Ev.exit
  invoke void @_ZNSt13runtime_errorC1ERKNSt7__cxx1112basic_stringIcSt11char_traitsIcESaIcEEE(ptr noundef nonnull align 8 dereferenceable(16) %9, ptr noundef nonnull align 8 dereferenceable(32) %2)
          to label %13 unwind label %15

13:                                               ; preds = %12
  invoke void @__cxa_throw(ptr nonnull %9, ptr nonnull @_ZTISt13runtime_error, ptr nonnull @_ZNSt13runtime_errorD1Ev) #32
          to label %45 unwind label %15

_ZNSt7__cxx1112basic_stringIcSt11char_traitsIcESaIcEED2Ev.exit14.thread: ; preds = %8
  %14 = landingpad { ptr, i32 }
          cleanup
  br label %.sink.split

15:                                               ; preds = %13, %12
  %.0 = phi i1 [ false, %13 ], [ true, %12 ]
  %16 = landingpad { ptr, i32 }
          cleanup
  %17 = load ptr, ptr %2, align 8, !tbaa !73
  %18 = getelementptr inbounds nuw i8, ptr %2, i64 16
  %19 = icmp eq ptr %17, %18
  br i1 %19, label %_ZNKSt7__cxx1112basic_stringIcSt11char_traitsIcESaIcEE11_M_is_localEv.exit.thread.i.i, label %_ZNKSt7__cxx1112basic_stringIcSt11char_traitsIcESaIcEE11_M_is_localEv.exit.i.i

_ZNKSt7__cxx1112basic_stringIcSt11char_traitsIcESaIcEE11_M_is_localEv.exit.thread.i.i: ; preds = %15
  %20 = getelementptr inbounds nuw i8, ptr %2, i64 8
  %21 = load i64, ptr %20, align 8, !tbaa !79
  %22 = icmp ult i64 %21, 16
  call void @llvm.assume(i1 %22)
  br label %_ZNSt7__cxx1112basic_stringIcSt11char_traitsIcESaIcEED2Ev.exit

_ZNKSt7__cxx1112basic_stringIcSt11char_traitsIcESaIcEE11_M_is_localEv.exit.i.i: ; preds = %15
  %23 = load i64, ptr %18, align 8, !tbaa !80
  %24 = add i64 %23, 1
  call void @_ZdlPvm(ptr noundef %17, i64 noundef %24) #30
  br label %_ZNSt7__cxx1112basic_stringIcSt11char_traitsIcESaIcEED2Ev.exit

_ZNSt7__cxx1112basic_stringIcSt11char_traitsIcESaIcEED2Ev.exit: ; preds = %_ZNKSt7__cxx1112basic_stringIcSt11char_traitsIcESaIcEE11_M_is_localEv.exit.i.i, %_ZNKSt7__cxx1112basic_stringIcSt11char_traitsIcESaIcEE11_M_is_localEv.exit.thread.i.i
  %25 = load ptr, ptr %3, align 8, !tbaa !73
  %26 = getelementptr inbounds nuw i8, ptr %3, i64 16
  %27 = icmp eq ptr %25, %26
  br i1 %27, label %_ZNKSt7__cxx1112basic_stringIcSt11char_traitsIcESaIcEE11_M_is_localEv.exit.thread.i.i13, label %_ZNSt7__cxx1112basic_stringIcSt11char_traitsIcESaIcEED2Ev.exit14

_ZNSt7__cxx1112basic_stringIcSt11char_traitsIcESaIcEED2Ev.exit.thread: ; preds = %_ZN5folly10SSLContext9getErrorsB5cxx11Ev.exit
  %28 = landingpad { ptr, i32 }
          cleanup
  %29 = load ptr, ptr %3, align 8, !tbaa !73
  %30 = getelementptr inbounds nuw i8, ptr %3, i64 16
  %31 = icmp eq ptr %29, %30
  br i1 %31, label %_ZNKSt7__cxx1112basic_stringIcSt11char_traitsIcESaIcEE11_M_is_localEv.exit.thread.i.i13.thread, label %_ZNSt7__cxx1112basic_stringIcSt11char_traitsIcESaIcEED2Ev.exit14.thread27

_ZNSt7__cxx1112basic_stringIcSt11char_traitsIcESaIcEED2Ev.exit14.thread27: ; preds = %_ZNSt7__cxx1112basic_stringIcSt11char_traitsIcESaIcEED2Ev.exit.thread
  %32 = load i64, ptr %30, align 8, !tbaa !80
  %33 = add i64 %32, 1
  call void @_ZdlPvm(ptr noundef %29, i64 noundef %33) #30
  br label %.sink.split

_ZNKSt7__cxx1112basic_stringIcSt11char_traitsIcESaIcEE11_M_is_localEv.exit.thread.i.i13.thread: ; preds = %_ZNSt7__cxx1112basic_stringIcSt11char_traitsIcESaIcEED2Ev.exit.thread
  %34 = getelementptr inbounds nuw i8, ptr %3, i64 8
  %35 = load i64, ptr %34, align 8, !tbaa !79
  %36 = icmp ult i64 %35, 16
  call void @llvm.assume(i1 %36)
  br label %.sink.split

_ZNKSt7__cxx1112basic_stringIcSt11char_traitsIcESaIcEE11_M_is_localEv.exit.thread.i.i13: ; preds = %_ZNSt7__cxx1112basic_stringIcSt11char_traitsIcESaIcEED2Ev.exit
  %37 = getelementptr inbounds nuw i8, ptr %3, i64 8
  %38 = load i64, ptr %37, align 8, !tbaa !79
  %39 = icmp ult i64 %38, 16
  call void @llvm.assume(i1 %39)
  call void @llvm.lifetime.end.p0(i64 32, ptr nonnull %3) #29
  call void @llvm.lifetime.end.p0(i64 32, ptr nonnull %2) #29
  br i1 %.0, label %42, label %43

_ZNSt7__cxx1112basic_stringIcSt11char_traitsIcESaIcEED2Ev.exit14: ; preds = %_ZNSt7__cxx1112basic_stringIcSt11char_traitsIcESaIcEED2Ev.exit
  %40 = load i64, ptr %26, align 8, !tbaa !80
  %41 = add i64 %40, 1
  call void @_ZdlPvm(ptr noundef %25, i64 noundef %41) #30
  call void @llvm.lifetime.end.p0(i64 32, ptr nonnull %3) #29
  call void @llvm.lifetime.end.p0(i64 32, ptr nonnull %2) #29
  br i1 %.0, label %42, label %43

.sink.split:                                      ; preds = %_ZNSt7__cxx1112basic_stringIcSt11char_traitsIcESaIcEED2Ev.exit14.thread, %_ZNKSt7__cxx1112basic_stringIcSt11char_traitsIcESaIcEE11_M_is_localEv.exit.thread.i.i13.thread, %_ZNSt7__cxx1112basic_stringIcSt11char_traitsIcESaIcEED2Ev.exit14.thread27
  %.pn.pn18.ph = phi { ptr, i32 } [ %28, %_ZNSt7__cxx1112basic_stringIcSt11char_traitsIcESaIcEED2Ev.exit14.thread27 ], [ %28, %_ZNKSt7__cxx1112basic_stringIcSt11char_traitsIcESaIcEE11_M_is_localEv.exit.thread.i.i13.thread ], [ %14, %_ZNSt7__cxx1112basic_stringIcSt11char_traitsIcESaIcEED2Ev.exit14.thread ]
  call void @llvm.lifetime.end.p0(i64 32, ptr nonnull %3) #29
  call void @llvm.lifetime.end.p0(i64 32, ptr nonnull %2) #29
  br label %42

42:                                               ; preds = %.sink.split, %_ZNKSt7__cxx1112basic_stringIcSt11char_traitsIcESaIcEE11_M_is_localEv.exit.thread.i.i13, %_ZNSt7__cxx1112basic_stringIcSt11char_traitsIcESaIcEED2Ev.exit14
  %.pn.pn18 = phi { ptr, i32 } [ %16, %_ZNSt7__cxx1112basic_stringIcSt11char_traitsIcESaIcEED2Ev.exit14 ], [ %16, %_ZNKSt7__cxx1112basic_stringIcSt11char_traitsIcESaIcEE11_M_is_localEv.exit.thread.i.i13 ], [ %.pn.pn18.ph, %.sink.split ]
  call void @__cxa_free_exception(ptr %9) #29
  br label %43

43:                                               ; preds = %_ZNKSt7__cxx1112basic_stringIcSt11char_traitsIcESaIcEE11_M_is_localEv.exit.thread.i.i13, %42, %_ZNSt7__cxx1112basic_stringIcSt11char_traitsIcESaIcEED2Ev.exit14
  %.pn.pn17 = phi { ptr, i32 } [ %.pn.pn18, %42 ], [ %16, %_ZNSt7__cxx1112basic_stringIcSt11char_traitsIcESaIcEED2Ev.exit14 ], [ %16, %_ZNKSt7__cxx1112basic_stringIcSt11char_traitsIcESaIcEE11_M_is_localEv.exit.thread.i.i13 ]
  resume { ptr, i32 } %.pn.pn17

44:                                               ; preds = %1
  ret ptr %6

45:                                               ; preds = %13
  unreachable
}